   1              		.cpu arm7tdmi
   2              		.fpu softvfp
   3              		.eabi_attribute 20, 1
   4              		.eabi_attribute 21, 1
   5              		.eabi_attribute 23, 3
   6              		.eabi_attribute 24, 1
   7              		.eabi_attribute 25, 1
   8              		.eabi_attribute 26, 1
   9              		.eabi_attribute 30, 6
  10              		.eabi_attribute 18, 4
  11              		.file	"button.c"
  21              	.Ltext0:
  22              		.file 1 "../button.c"
 2262              		.align	2
 2263              		.global	Eint4567_ISR
 2265              	Eint4567_ISR:
 2266              	.LFB0:
   1:../button.c   **** /*--- Archivo : button.c ---*/
   2:../button.c   **** #include "8led.h"
   3:../button.c   **** #include "led.h"
   4:../button.c   **** #include "44blib.h"
   5:../button.c   **** #include "44b.h"
   6:../button.c   **** #include "def.h"
   7:../button.c   **** #include "button.h"
   8:../button.c   **** #include "cola.h"
   9:../button.c   **** 
  10:../button.c   **** /*--- Variables globales ---*/
  11:../button.c   **** 
  12:../button.c   **** /* Declaración de función para ISR de Eint4567 */
  13:../button.c   **** void Eint4567_ISR(void) __attribute__((interrupt("IRQ")));
  14:../button.c   **** 
  15:../button.c   **** /* Código de funciones */
  16:../button.c   **** void Eint4567_ISR(void)
  17:../button.c   **** {
 2267              		.loc 1 17 0
 2268              		.cfi_startproc
 2269              		@ Interrupt Service Routine.
 2270              		@ args = 0, pretend = 0, frame = 0
 2271              		@ frame_needed = 1, uses_anonymous_args = 0
 2272 0000 04C02DE5 		str	ip, [sp, #-4]!
 2273 0004 0DC0A0E1 		mov	ip, sp
 2274              	.LCFI0:
 2275              		.cfi_def_cfa_register 12
 2276 0008 0FD82DE9 		stmfd	sp!, {r0, r1, r2, r3, fp, ip, lr, pc}
 2277 000c 04B04CE2 		sub	fp, ip, #4
 2278              		.cfi_offset 14, -8
 2279              		.cfi_offset 13, -12
 2280              		.cfi_offset 11, -16
 2281              		.cfi_offset 3, -20
 2282              		.cfi_offset 2, -24
 2283              		.cfi_offset 1, -28
 2284              		.cfi_offset 0, -32
 2285              	.LCFI1:
 2286              		.cfi_def_cfa 11, 4
  18:../button.c   ****   rINTMSK |= BIT_EINT4567; // Deshabilitar interrupciones de EINT4567
 2287              		.loc 1 18 0
 2288 0010 54309FE5 		ldr	r3, .L2
 2289 0014 50209FE5 		ldr	r2, .L2
 2290 0018 002092E5 		ldr	r2, [r2, #0]
 2291 001c 022682E3 		orr	r2, r2, #2097152
 2292 0020 002083E5 		str	r2, [r3, #0]
  19:../button.c   **** 
  20:../button.c   ****   timer_init();
 2293              		.loc 1 20 0
 2294 0024 FEFFFFEB 		bl	timer_init
  21:../button.c   **** 
  22:../button.c   ****   rEXTINTPND = 0xf;           // Borra los bits en EXTINTPND
 2295              		.loc 1 22 0
 2296 0028 40309FE5 		ldr	r3, .L2+4
 2297 002c 0F20A0E3 		mov	r2, #15
 2298 0030 002083E5 		str	r2, [r3, #0]
  23:../button.c   ****   rI_ISPC |= BIT_EINT4567;    // Borra el bit pendiente en INTPND
 2299              		.loc 1 23 0
 2300 0034 38309FE5 		ldr	r3, .L2+8
 2301 0038 34209FE5 		ldr	r2, .L2+8
 2302 003c 002092E5 		ldr	r2, [r2, #0]
 2303 0040 022682E3 		orr	r2, r2, #2097152
 2304 0044 002083E5 		str	r2, [r3, #0]
  24:../button.c   ****   rINTMSK &= ~(BIT_EINT4567); // Habilitar interrupciones de EINT4567
 2305              		.loc 1 24 0
 2306 0048 1C309FE5 		ldr	r3, .L2
 2307 004c 18209FE5 		ldr	r2, .L2
 2308 0050 002092E5 		ldr	r2, [r2, #0]
 2309 0054 0226C2E3 		bic	r2, r2, #2097152
 2310 0058 002083E5 		str	r2, [r3, #0]
  25:../button.c   **** }
 2311              		.loc 1 25 0
 2312 005c 1CD04BE2 		sub	sp, fp, #28
 2313 0060 0F689DE8 		ldmfd	sp, {r0, r1, r2, r3, fp, sp, lr}
 2314 0064 04C09DE4 		ldmfd	sp!, {ip}
 2315 0068 04F05EE2 		subs	pc, lr, #4
 2316              	.L3:
 2317              		.align	2
 2318              	.L2:
 2319 006c 0C00E001 		.word	31457292
 2320 0070 5400D201 		.word	30539860
 2321 0074 2400E001 		.word	31457316
 2322              		.cfi_endproc
 2323              	.LFE0:
 2325              		.align	2
 2326              		.global	Eint4567_init
 2328              	Eint4567_init:
 2329              	.LFB1:
  26:../button.c   **** 
  27:../button.c   **** void Eint4567_init(void)
  28:../button.c   **** {
 2330              		.loc 1 28 0
 2331              		.cfi_startproc
 2332              		@ Function supports interworking.
 2333              		@ args = 0, pretend = 0, frame = 0
 2334              		@ frame_needed = 1, uses_anonymous_args = 0
 2335 0078 0DC0A0E1 		mov	ip, sp
 2336              	.LCFI2:
 2337              		.cfi_def_cfa_register 12
 2338 007c 00D82DE9 		stmfd	sp!, {fp, ip, lr, pc}
 2339 0080 04B04CE2 		sub	fp, ip, #4
 2340              		.cfi_offset 14, -8
 2341              		.cfi_offset 13, -12
 2342              		.cfi_offset 11, -16
 2343              	.LCFI3:
 2344              		.cfi_def_cfa 11, 4
  29:../button.c   ****   // Configuración del controlador de interrupciones
  30:../button.c   ****   rI_ISPC = 0x3ffffff;        // Borra INTPND escribiendo 1s en I_ISPC
 2345              		.loc 1 30 0
 2346 0084 A4309FE5 		ldr	r3, .L5
 2347 0088 3F23E0E3 		mvn	r2, #-67108864
 2348 008c 002083E5 		str	r2, [r3, #0]
  31:../button.c   ****   rEXTINTPND = 0xf;           // Borra EXTINTPND escribiendo 1s en el propio registro
 2349              		.loc 1 31 0
 2350 0090 9C309FE5 		ldr	r3, .L5+4
 2351 0094 0F20A0E3 		mov	r2, #15
 2352 0098 002083E5 		str	r2, [r3, #0]
  32:../button.c   ****   rINTMOD = 0x0;              // Configura las líneas como de tipo IRQ
 2353              		.loc 1 32 0
 2354 009c 94309FE5 		ldr	r3, .L5+8
 2355 00a0 0020A0E3 		mov	r2, #0
 2356 00a4 002083E5 		str	r2, [r3, #0]
  33:../button.c   ****   rINTCON = 0x1;              // Habilita interrupciones vectorizadas y la línea IRQ (FIQ no)
 2357              		.loc 1 33 0
 2358 00a8 1E36A0E3 		mov	r3, #31457280
 2359 00ac 0120A0E3 		mov	r2, #1
 2360 00b0 002083E5 		str	r2, [r3, #0]
  34:../button.c   ****   rINTMSK &= ~(BIT_EINT4567); // Habilitar interrupciones de EINT4567
 2361              		.loc 1 34 0
 2362 00b4 80309FE5 		ldr	r3, .L5+12
 2363 00b8 7C209FE5 		ldr	r2, .L5+12
 2364 00bc 002092E5 		ldr	r2, [r2, #0]
 2365 00c0 0226C2E3 		bic	r2, r2, #2097152
 2366 00c4 002083E5 		str	r2, [r3, #0]
  35:../button.c   **** 
  36:../button.c   ****   // Establece la rutina de servicio para Eint4567
  37:../button.c   ****   pISR_EINT4567 = (unsigned)Eint4567_ISR;
 2367              		.loc 1 37 0
 2368 00c8 70309FE5 		ldr	r3, .L5+16
 2369 00cc 70209FE5 		ldr	r2, .L5+20
 2370 00d0 002083E5 		str	r2, [r3, #0]
  38:../button.c   **** 
  39:../button.c   ****   // Configuración del puerto G
  40:../button.c   ****   rPCONG = 0xffff;                                                        // Establece la función 
 2371              		.loc 1 40 0
 2372 00d4 6C309FE5 		ldr	r3, .L5+24
 2373 00d8 6C209FE5 		ldr	r2, .L5+28
 2374 00dc 002083E5 		str	r2, [r3, #0]
  41:../button.c   ****   rPUPG = 0x0;                                                            // Habilita el "pull-up" 
 2375              		.loc 1 41 0
 2376 00e0 68309FE5 		ldr	r3, .L5+32
 2377 00e4 0020A0E3 		mov	r2, #0
 2378 00e8 002083E5 		str	r2, [r3, #0]
  42:../button.c   ****   rEXTINT = rEXTINT | (0x2 << 0) | (0x2 << 4) | (0x2 << 8) | (0x2 << 12); // Configura las líneas 
 2379              		.loc 1 42 0
 2380 00ec 60209FE5 		ldr	r2, .L5+36
 2381 00f0 5C309FE5 		ldr	r3, .L5+36
 2382 00f4 003093E5 		ldr	r3, [r3, #0]
 2383 00f8 223C83E3 		orr	r3, r3, #8704
 2384 00fc 223083E3 		orr	r3, r3, #34
 2385 0100 003082E5 		str	r3, [r2, #0]
  43:../button.c   **** 
  44:../button.c   ****   rEXTINTPND = 0xf;        // borra los bits en EXTINTPND
 2386              		.loc 1 44 0
 2387 0104 28309FE5 		ldr	r3, .L5+4
 2388 0108 0F20A0E3 		mov	r2, #15
 2389 010c 002083E5 		str	r2, [r3, #0]
  45:../button.c   ****   rI_ISPC |= BIT_EINT4567; // borra el bit pendiente en INTPND
 2390              		.loc 1 45 0
 2391 0110 18309FE5 		ldr	r3, .L5
 2392 0114 14209FE5 		ldr	r2, .L5
 2393 0118 002092E5 		ldr	r2, [r2, #0]
 2394 011c 022682E3 		orr	r2, r2, #2097152
 2395 0120 002083E5 		str	r2, [r3, #0]
  46:../button.c   **** }
 2396              		.loc 1 46 0
 2397 0124 0CD04BE2 		sub	sp, fp, #12
 2398 0128 00689DE8 		ldmfd	sp, {fp, sp, lr}
 2399 012c 1EFF2FE1 		bx	lr
 2400              	.L6:
 2401              		.align	2
 2402              	.L5:
 2403 0130 2400E001 		.word	31457316
 2404 0134 5400D201 		.word	30539860
 2405 0138 0800E001 		.word	31457288
 2406 013c 0C00E001 		.word	31457292
 2407 0140 74FF7F0C 		.word	209715060
 2408 0144 00000000 		.word	Eint4567_ISR
 2409 0148 4000D201 		.word	30539840
 2410 014c FFFF0000 		.word	65535
 2411 0150 4800D201 		.word	30539848
 2412 0154 5000D201 		.word	30539856
 2413              		.cfi_endproc
 2414              	.LFE1:
 2416              	.Letext0: